target datalayout = "e-m:e-p270:32:32-p271:32:32-p272:64:64-i64:64-i128:128-f80:128-n8:16:32:64-S128"
target triple = "x86_64-pc-linux-gnu"

%struct.bio_st = type { ptr, ptr, ptr, ptr, ptr, i32, i32, i32, i32, i32, ptr, ptr, ptr, %struct.CRYPTO_REF_COUNT, i64, i64, %struct.crypto_ex_data_st }
%struct.CRYPTO_REF_COUNT = type { i32 }
%struct.crypto_ex_data_st = type { ptr, ptr }
%struct.bio_f_buffer_ctx_struct = type { i32, i32, ptr, i32, i32, ptr, i32, i32 }

@.str.2 = private unnamed_addr constant [36 x i8] c"../openssl/crypto/bio/bf_readbuff.c\00", align 1

; Function Attrs: nounwind uwtable
define internal i32 @readbuffer_new(ptr noundef %0) #0 {
  %2 = alloca i32, align 4
  %3 = alloca ptr, align 8
  %4 = alloca ptr, align 8
  %5 = alloca i32, align 4
  store ptr %0, ptr %3, align 8, !tbaa !3
  call void @llvm.lifetime.start.p0(i64 8, ptr %4) #4
  %6 = call noalias ptr @CRYPTO_zalloc(i64 noundef 40, ptr noundef @.str.2, i32 noundef 55)
  store ptr %6, ptr %4, align 8, !tbaa !20
  %7 = load ptr, ptr %4, align 8, !tbaa !20
  %8 = icmp eq ptr %7, null
  br i1 %8, label %9, label %10

9:                                                ; preds = %1
  store i32 0, ptr %2, align 4
  store i32 1, ptr %5, align 4
  br label %30

10:                                               ; preds = %1
  %11 = load ptr, ptr %4, align 8, !tbaa !20
  %12 = getelementptr inbounds nuw %struct.bio_f_buffer_ctx_struct, ptr %11, i32 0, i32 0
  store i32 4096, ptr %12, align 8, !tbaa !33
  %13 = call noalias ptr @CRYPTO_zalloc(i64 noundef 4096, ptr noundef @.str.2, i32 noundef 60)
  %14 = load ptr, ptr %4, align 8, !tbaa !20
  %15 = getelementptr inbounds nuw %struct.bio_f_buffer_ctx_struct, ptr %14, i32 0, i32 2
  store ptr %13, ptr %15, align 8, !tbaa !25
  %16 = load ptr, ptr %4, align 8, !tbaa !20
  %17 = getelementptr inbounds nuw %struct.bio_f_buffer_ctx_struct, ptr %16, i32 0, i32 2
  %18 = load ptr, ptr %17, align 8, !tbaa !25
  %19 = icmp eq ptr %18, null
  br i1 %19, label %20, label %22

20:                                               ; preds = %10
  %21 = load ptr, ptr %4, align 8, !tbaa !20
  call void @CRYPTO_free(ptr noundef %21, ptr noundef @.str.2, i32 noundef 62)
  store i32 0, ptr %2, align 4
  store i32 1, ptr %5, align 4
  br label %30

22:                                               ; preds = %10
  %23 = load ptr, ptr %3, align 8, !tbaa !3
  %24 = getelementptr inbounds nuw %struct.bio_st, ptr %23, i32 0, i32 5
  store i32 1, ptr %24, align 8, !tbaa !34
  %25 = load ptr, ptr %4, align 8, !tbaa !20
  %26 = load ptr, ptr %3, align 8, !tbaa !3
  %27 = getelementptr inbounds nuw %struct.bio_st, ptr %26, i32 0, i32 10
  store ptr %25, ptr %27, align 8, !tbaa !12
  %28 = load ptr, ptr %3, align 8, !tbaa !3
  %29 = getelementptr inbounds nuw %struct.bio_st, ptr %28, i32 0, i32 7
  store i32 0, ptr %29, align 8, !tbaa !35
  store i32 1, ptr %2, align 4
  store i32 1, ptr %5, align 4
  br label %30

30:                                               ; preds = %22, %20, %9
  call void @llvm.lifetime.end.p0(i64 8, ptr %4) #4
  %31 = load i32, ptr %2, align 4
  ret i32 %31
}