; Function Attrs: nounwind uwtable
define internal range(i32 0, 2) i32 @readbuffer_new(ptr noundef writeonly captures(none) %0) #2 {
  %2 = tail call noalias ptr @CRYPTO_zalloc(i64 noundef 40, ptr noundef nonnull @.str.2, i32 noundef 55) #5
  %3 = icmp eq ptr %2, null
  br i1 %3, label %13, label %4

4:                                                ; preds = %1
  store i32 4096, ptr %2, align 8, !tbaa !22
  %5 = tail call noalias ptr @CRYPTO_zalloc(i64 noundef 4096, ptr noundef nonnull @.str.2, i32 noundef 60) #5
  %6 = getelementptr inbounds nuw i8, ptr %2, i64 8
  store ptr %5, ptr %6, align 8, !tbaa !21
  %7 = icmp eq ptr %5, null
  br i1 %7, label %8, label %9

8:                                                ; preds = %4
  tail call void @CRYPTO_free(ptr noundef nonnull %2, ptr noundef nonnull @.str.2, i32 noundef 62) #5
  br label %13

9:                                                ; preds = %4
  %10 = getelementptr inbounds nuw i8, ptr %0, i64 40
  store i32 1, ptr %10, align 8, !tbaa !27
  %11 = getelementptr inbounds nuw i8, ptr %0, i64 64
  store ptr %2, ptr %11, align 8, !tbaa !3
  %12 = getelementptr inbounds nuw i8, ptr %0, i64 48
  store i32 0, ptr %12, align 8, !tbaa !28
  br label %13

13:                                               ; preds = %1, %9, %8
  %.0 = phi i32 [ 0, %8 ], [ 1, %9 ], [ 0, %1 ]
  ret i32 %.0
}